target datalayout = "e-m:e-p270:32:32-p271:32:32-p272:64:64-i64:64-i128:128-f80:128-n8:16:32:64-S128"
target triple = "x86_64-pc-linux-gnu"

%struct.Odc_Man_t_ = type { i32, i32, i32, i32, i32, i32, ptr, ptr, ptr, ptr, i32, i32, i32, ptr, i16, i16, ptr, i32, ptr, i32, i32, ptr, ptr, ptr, i32, i32, i32, i32, i32, i32, i64, i64, i64, i64, i64, i64, i64, i64 }
%struct.Odc_Obj_t_ = type { i16, i16, i16, i16, i32, i32 }

; Function Attrs: inlinehint nounwind uwtable
define internal i32 @Odc_IsComplement(i16 noundef zeroext %0) #5 {
  %2 = alloca i16, align 2
  store i16 %0, ptr %2, align 2, !tbaa !59
  %3 = load i16, ptr %2, align 2, !tbaa !59
  %4 = zext i16 %3 to i32
  %5 = and i32 %4, 1
  ret i32 %5
}

; Function Attrs: inlinehint nounwind uwtable
define internal zeroext i16 @Odc_Regular(i16 noundef zeroext %0) #5 {
  %2 = alloca i16, align 2
  store i16 %0, ptr %2, align 2, !tbaa !59
  %3 = load i16, ptr %2, align 2, !tbaa !59
  %4 = zext i16 %3 to i32
  %5 = and i32 %4, -2
  %6 = trunc i32 %5 to i16
  ret i16 %6
}

; Function Attrs: inlinehint nounwind uwtable
define internal i32 @Odc_ObjFaninC1(ptr noundef %0) #5 {
  %2 = alloca ptr, align 8
  store ptr %0, ptr %2, align 8, !tbaa !115
  %3 = load ptr, ptr %2, align 8, !tbaa !115
  %4 = getelementptr inbounds nuw %struct.Odc_Obj_t_, ptr %3, i32 0, i32 1
  %5 = load i16, ptr %4, align 2, !tbaa !117
  %6 = call i32 @Odc_IsComplement(i16 noundef zeroext %5)
  ret i32 %6
}

; Function Attrs: inlinehint nounwind uwtable
define internal zeroext i16 @Odc_NotCond(i16 noundef zeroext %0, i32 noundef %1) #5 {
  %3 = alloca i16, align 2
  %4 = alloca i32, align 4
  store i16 %0, ptr %3, align 2, !tbaa !59
  store i32 %1, ptr %4, align 4, !tbaa !3
  %5 = load i16, ptr %3, align 2, !tbaa !59
  %6 = zext i16 %5 to i32
  %7 = load i32, ptr %4, align 4, !tbaa !3
  %8 = icmp ne i32 %7, 0
  %9 = zext i1 %8 to i32
  %10 = trunc i32 %9 to i16
  %11 = zext i16 %10 to i32
  %12 = xor i32 %6, %11
  %13 = trunc i32 %12 to i16
  ret i16 %13
}

; Function Attrs: inlinehint nounwind uwtable
define internal i32 @Odc_ObjFaninC0(ptr noundef %0) #5 {
  %2 = alloca ptr, align 8
  store ptr %0, ptr %2, align 8, !tbaa !115
  %3 = load ptr, ptr %2, align 8, !tbaa !115
  %4 = getelementptr inbounds nuw %struct.Odc_Obj_t_, ptr %3, i32 0, i32 0
  %5 = load i16, ptr %4, align 4, !tbaa !116
  %6 = call i32 @Odc_IsComplement(i16 noundef zeroext %5)
  ret i32 %6
}

; Function Attrs: inlinehint nounwind uwtable
define internal zeroext i16 @Odc_ObjFanin1(ptr noundef %0) #5 {
  %2 = alloca ptr, align 8
  store ptr %0, ptr %2, align 8, !tbaa !115
  %3 = load ptr, ptr %2, align 8, !tbaa !115
  %4 = getelementptr inbounds nuw %struct.Odc_Obj_t_, ptr %3, i32 0, i32 1
  %5 = load i16, ptr %4, align 2, !tbaa !117
  %6 = call zeroext i16 @Odc_Regular(i16 noundef zeroext %5)
  ret i16 %6
}

; Function Attrs: inlinehint nounwind uwtable
define internal zeroext i16 @Odc_ObjFanin0(ptr noundef %0) #5 {
  %2 = alloca ptr, align 8
  store ptr %0, ptr %2, align 8, !tbaa !115
  %3 = load ptr, ptr %2, align 8, !tbaa !115
  %4 = getelementptr inbounds nuw %struct.Odc_Obj_t_, ptr %3, i32 0, i32 0
  %5 = load i16, ptr %4, align 4, !tbaa !116
  %6 = call zeroext i16 @Odc_Regular(i16 noundef zeroext %5)
  ret i16 %6
}

; Function Attrs: inlinehint nounwind uwtable
define internal zeroext i16 @Odc_Const0() #5 {
  ret i16 1
}

; Function Attrs: inlinehint nounwind uwtable
define internal zeroext i16 @Odc_Const1() #5 {
  ret i16 0
}

; Function Attrs: inlinehint nounwind uwtable
define internal i32 @Odc_IsTerm(ptr noundef %0, i16 noundef zeroext %1) #5 {
  %3 = alloca ptr, align 8
  %4 = alloca i16, align 2
  store ptr %0, ptr %3, align 8, !tbaa !7
  store i16 %1, ptr %4, align 2, !tbaa !59
  %5 = load i16, ptr %4, align 2, !tbaa !59
  %6 = zext i16 %5 to i32
  %7 = ashr i32 %6, 1
  %8 = load ptr, ptr %3, align 8, !tbaa !7
  %9 = getelementptr inbounds nuw %struct.Odc_Man_t_, ptr %8, i32 0, i32 10
  %10 = load i32, ptr %9, align 8, !tbaa !29
  %11 = icmp sle i32 %7, %10
  %12 = zext i1 %11 to i32
  ret i32 %12
}

; Function Attrs: inlinehint nounwind uwtable
define internal void @Odc_ObjSetTravIdCurrent(ptr noundef %0, ptr noundef %1) #5 {
  %3 = alloca ptr, align 8
  %4 = alloca ptr, align 8
  store ptr %0, ptr %3, align 8, !tbaa !7
  store ptr %1, ptr %4, align 8, !tbaa !115
  %5 = load ptr, ptr %3, align 8, !tbaa !7
  %6 = getelementptr inbounds nuw %struct.Odc_Man_t_, ptr %5, i32 0, i32 15
  %7 = load i16, ptr %6, align 2, !tbaa !124
  %8 = load ptr, ptr %4, align 8, !tbaa !115
  %9 = getelementptr inbounds nuw %struct.Odc_Obj_t_, ptr %8, i32 0, i32 3
  store i16 %7, ptr %9, align 2, !tbaa !119
  ret void
}

; Function Attrs: inlinehint nounwind uwtable
define internal i32 @Odc_ObjIsTravIdCurrent(ptr noundef %0, ptr noundef %1) #5 {
  %3 = alloca ptr, align 8
  %4 = alloca ptr, align 8
  store ptr %0, ptr %3, align 8, !tbaa !7
  store ptr %1, ptr %4, align 8, !tbaa !115
  %5 = load ptr, ptr %4, align 8, !tbaa !115
  %6 = getelementptr inbounds nuw %struct.Odc_Obj_t_, ptr %5, i32 0, i32 3
  %7 = load i16, ptr %6, align 2, !tbaa !119
  %8 = zext i16 %7 to i32
  %9 = load ptr, ptr %3, align 8, !tbaa !7
  %10 = getelementptr inbounds nuw %struct.Odc_Man_t_, ptr %9, i32 0, i32 15
  %11 = load i16, ptr %10, align 2, !tbaa !124
  %12 = zext i16 %11 to i32
  %13 = icmp eq i32 %8, %12
  %14 = zext i1 %13 to i32
  ret i32 %14
}

; Function Attrs: inlinehint nounwind uwtable
define internal ptr @Odc_Lit2Obj(ptr noundef %0, i16 noundef zeroext %1) #5 {
  %3 = alloca ptr, align 8
  %4 = alloca i16, align 2
  store ptr %0, ptr %3, align 8, !tbaa !7
  store i16 %1, ptr %4, align 2, !tbaa !59
  %5 = load ptr, ptr %3, align 8, !tbaa !7
  %6 = getelementptr inbounds nuw %struct.Odc_Man_t_, ptr %5, i32 0, i32 13
  %7 = load ptr, ptr %6, align 8, !tbaa !28
  %8 = load i16, ptr %4, align 2, !tbaa !59
  %9 = zext i16 %8 to i32
  %10 = ashr i32 %9, 1
  %11 = sext i32 %10 to i64
  %12 = getelementptr inbounds %struct.Odc_Obj_t_, ptr %7, i64 %11
  ret ptr %12
}

; Function Attrs: nounwind uwtable
define i32 @Abc_NtkDontCareCofactors_rec(ptr noundef %0, i16 noundef zeroext %1, i32 noundef %2) #0 {
  %4 = alloca i32, align 4
  %5 = alloca ptr, align 8
  %6 = alloca i16, align 2
  %7 = alloca i32, align 4
  %8 = alloca ptr, align 8
  %9 = alloca i32, align 4
  %10 = alloca i32, align 4
  %11 = alloca i16, align 2
  %12 = alloca i16, align 2
  %13 = alloca i16, align 2
  %14 = alloca i16, align 2
  %15 = alloca i32, align 4
  store ptr %0, ptr %5, align 8, !tbaa !7
  store i16 %1, ptr %6, align 2, !tbaa !59
  store i32 %2, ptr %7, align 4, !tbaa !3
  call void @llvm.lifetime.start.p0(i64 8, ptr %8) #10
  call void @llvm.lifetime.start.p0(i64 4, ptr %9) #10
  call void @llvm.lifetime.start.p0(i64 4, ptr %10) #10
  call void @llvm.lifetime.start.p0(i64 2, ptr %11) #10
  call void @llvm.lifetime.start.p0(i64 2, ptr %12) #10
  call void @llvm.lifetime.start.p0(i64 2, ptr %13) #10
  call void @llvm.lifetime.start.p0(i64 2, ptr %14) #10
  %16 = load ptr, ptr %5, align 8, !tbaa !7
  %17 = load i16, ptr %6, align 2, !tbaa !59
  %18 = call ptr @Odc_Lit2Obj(ptr noundef %16, i16 noundef zeroext %17)
  store ptr %18, ptr %8, align 8, !tbaa !115
  %19 = load ptr, ptr %5, align 8, !tbaa !7
  %20 = load ptr, ptr %8, align 8, !tbaa !115
  %21 = call i32 @Odc_ObjIsTravIdCurrent(ptr noundef %19, ptr noundef %20)
  %22 = icmp ne i32 %21, 0
  br i1 %22, label %23, label %29

23:                                               ; preds = %3
  %24 = load ptr, ptr %5, align 8, !tbaa !7
  %25 = getelementptr inbounds nuw %struct.Odc_Man_t_, ptr %24, i32 0, i32 5
  store i32 1, ptr %25, align 4, !tbaa !24
  %26 = load ptr, ptr %8, align 8, !tbaa !115
  %27 = getelementptr inbounds nuw %struct.Odc_Obj_t_, ptr %26, i32 0, i32 4
  %28 = load i32, ptr %27, align 4, !tbaa !123
  store i32 %28, ptr %4, align 4
  store i32 1, ptr %15, align 4
  br label %120

29:                                               ; preds = %3
  %30 = load ptr, ptr %5, align 8, !tbaa !7
  %31 = load ptr, ptr %8, align 8, !tbaa !115
  call void @Odc_ObjSetTravIdCurrent(ptr noundef %30, ptr noundef %31)
  %32 = load ptr, ptr %8, align 8, !tbaa !115
  %33 = getelementptr inbounds nuw %struct.Odc_Obj_t_, ptr %32, i32 0, i32 5
  %34 = load i32, ptr %33, align 4, !tbaa !31
  %35 = load i32, ptr %7, align 4, !tbaa !3
  %36 = and i32 %34, %35
  %37 = icmp eq i32 %36, 0
  br i1 %37, label %38, label %47

38:                                               ; preds = %29
  %39 = load i16, ptr %6, align 2, !tbaa !59
  %40 = zext i16 %39 to i32
  %41 = shl i32 %40, 16
  %42 = load i16, ptr %6, align 2, !tbaa !59
  %43 = zext i16 %42 to i32
  %44 = or i32 %41, %43
  %45 = load ptr, ptr %8, align 8, !tbaa !115
  %46 = getelementptr inbounds nuw %struct.Odc_Obj_t_, ptr %45, i32 0, i32 4
  store i32 %44, ptr %46, align 4, !tbaa !123
  store i32 %44, ptr %4, align 4
  store i32 1, ptr %15, align 4
  br label %120

47:                                               ; preds = %29
  %48 = load ptr, ptr %8, align 8, !tbaa !115
  %49 = getelementptr inbounds nuw %struct.Odc_Obj_t_, ptr %48, i32 0, i32 5
  %50 = load i32, ptr %49, align 4, !tbaa !31
  %51 = load i32, ptr %7, align 4, !tbaa !3
  %52 = icmp eq i32 %50, %51
  br i1 %52, label %53, label %67

53:                                               ; preds = %47
  %54 = load ptr, ptr %5, align 8, !tbaa !7
  %55 = load i16, ptr %6, align 2, !tbaa !59
  %56 = call i32 @Odc_IsTerm(ptr noundef %54, i16 noundef zeroext %55)
  %57 = icmp ne i32 %56, 0
  br i1 %57, label %58, label %67

58:                                               ; preds = %53
  %59 = call zeroext i16 @Odc_Const1()
  %60 = zext i16 %59 to i32
  %61 = shl i32 %60, 16
  %62 = call zeroext i16 @Odc_Const0()
  %63 = zext i16 %62 to i32
  %64 = or i32 %61, %63
  %65 = load ptr, ptr %8, align 8, !tbaa !115
  %66 = getelementptr inbounds nuw %struct.Odc_Obj_t_, ptr %65, i32 0, i32 4
  store i32 %64, ptr %66, align 4, !tbaa !123
  store i32 %64, ptr %4, align 4
  store i32 1, ptr %15, align 4
  br label %120

67:                                               ; preds = %53, %47
  %68 = load ptr, ptr %5, align 8, !tbaa !7
  %69 = load ptr, ptr %8, align 8, !tbaa !115
  %70 = call zeroext i16 @Odc_ObjFanin0(ptr noundef %69)
  %71 = load i32, ptr %7, align 4, !tbaa !3
  %72 = call i32 @Abc_NtkDontCareCofactors_rec(ptr noundef %68, i16 noundef zeroext %70, i32 noundef %71)
  store i32 %72, ptr %9, align 4, !tbaa !3
  %73 = load ptr, ptr %5, align 8, !tbaa !7
  %74 = load ptr, ptr %8, align 8, !tbaa !115
  %75 = call zeroext i16 @Odc_ObjFanin1(ptr noundef %74)
  %76 = load i32, ptr %7, align 4, !tbaa !3
  %77 = call i32 @Abc_NtkDontCareCofactors_rec(ptr noundef %73, i16 noundef zeroext %75, i32 noundef %76)
  store i32 %77, ptr %10, align 4, !tbaa !3
  %78 = load i32, ptr %9, align 4, !tbaa !3
  %79 = and i32 %78, 65535
  %80 = trunc i32 %79 to i16
  %81 = load ptr, ptr %8, align 8, !tbaa !115
  %82 = call i32 @Odc_ObjFaninC0(ptr noundef %81)
  %83 = call zeroext i16 @Odc_NotCond(i16 noundef zeroext %80, i32 noundef %82)
  store i16 %83, ptr %11, align 2, !tbaa !59
  %84 = load i32, ptr %10, align 4, !tbaa !3
  %85 = and i32 %84, 65535
  %86 = trunc i32 %85 to i16
  %87 = load ptr, ptr %8, align 8, !tbaa !115
  %88 = call i32 @Odc_ObjFaninC1(ptr noundef %87)
  %89 = call zeroext i16 @Odc_NotCond(i16 noundef zeroext %86, i32 noundef %88)
  store i16 %89, ptr %12, align 2, !tbaa !59
  %90 = load ptr, ptr %5, align 8, !tbaa !7
  %91 = load i16, ptr %11, align 2, !tbaa !59
  %92 = load i16, ptr %12, align 2, !tbaa !59
  %93 = call zeroext i16 @Odc_And(ptr noundef %90, i16 noundef zeroext %91, i16 noundef zeroext %92)
  store i16 %93, ptr %13, align 2, !tbaa !59
  %94 = load i32, ptr %9, align 4, !tbaa !3
  %95 = lshr i32 %94, 16
  %96 = trunc i32 %95 to i16
  %97 = load ptr, ptr %8, align 8, !tbaa !115
  %98 = call i32 @Odc_ObjFaninC0(ptr noundef %97)
  %99 = call zeroext i16 @Odc_NotCond(i16 noundef zeroext %96, i32 noundef %98)
  store i16 %99, ptr %11, align 2, !tbaa !59
  %100 = load i32, ptr %10, align 4, !tbaa !3
  %101 = lshr i32 %100, 16
  %102 = trunc i32 %101 to i16
  %103 = load ptr, ptr %8, align 8, !tbaa !115
  %104 = call i32 @Odc_ObjFaninC1(ptr noundef %103)
  %105 = call zeroext i16 @Odc_NotCond(i16 noundef zeroext %102, i32 noundef %104)
  store i16 %105, ptr %12, align 2, !tbaa !59
  %106 = load ptr, ptr %5, align 8, !tbaa !7
  %107 = load i16, ptr %11, align 2, !tbaa !59
  %108 = load i16, ptr %12, align 2, !tbaa !59
  %109 = call zeroext i16 @Odc_And(ptr noundef %106, i16 noundef zeroext %107, i16 noundef zeroext %108)
  store i16 %109, ptr %14, align 2, !tbaa !59
  %110 = load ptr, ptr %5, align 8, !tbaa !7
  %111 = getelementptr inbounds nuw %struct.Odc_Man_t_, ptr %110, i32 0, i32 5
  store i32 0, ptr %111, align 4, !tbaa !24
  %112 = load i16, ptr %14, align 2, !tbaa !59
  %113 = zext i16 %112 to i32
  %114 = shl i32 %113, 16
  %115 = load i16, ptr %13, align 2, !tbaa !59
  %116 = zext i16 %115 to i32
  %117 = or i32 %114, %116
  %118 = load ptr, ptr %8, align 8, !tbaa !115
  %119 = getelementptr inbounds nuw %struct.Odc_Obj_t_, ptr %118, i32 0, i32 4
  store i32 %117, ptr %119, align 4, !tbaa !123
  store i32 %117, ptr %4, align 4
  store i32 1, ptr %15, align 4
  br label %120

120:                                              ; preds = %67, %58, %38, %23
  call void @llvm.lifetime.end.p0(i64 2, ptr %14) #10
  call void @llvm.lifetime.end.p0(i64 2, ptr %13) #10
  call void @llvm.lifetime.end.p0(i64 2, ptr %12) #10
  call void @llvm.lifetime.end.p0(i64 2, ptr %11) #10
  call void @llvm.lifetime.end.p0(i64 4, ptr %10) #10
  call void @llvm.lifetime.end.p0(i64 4, ptr %9) #10
  call void @llvm.lifetime.end.p0(i64 8, ptr %8) #10
  %121 = load i32, ptr %4, align 4
  ret i32 %121
}