; Function Attrs: nounwind uwtable
define i32 @Abc_NtkDontCareCofactors_rec(ptr noundef %0, i16 noundef zeroext %1, i32 noundef %2) local_unnamed_addr #0 {
  %4 = getelementptr i8, ptr %0, i64 72
  %.val = load ptr, ptr %4, align 8, !tbaa !28
  %5 = lshr i16 %1, 1
  %6 = zext nneg i16 %5 to i64
  %7 = getelementptr inbounds nuw %struct.Odc_Obj_t_, ptr %.val, i64 %6
  %8 = getelementptr i8, ptr %0, i64 82
  %.val43 = load i16, ptr %8, align 2, !tbaa !119
  %9 = getelementptr i8, ptr %7, i64 6
  %.val44 = load i16, ptr %9, align 2, !tbaa !115
  %.not = icmp eq i16 %.val44, %.val43
  br i1 %.not, label %10, label %14

10:                                               ; preds = %3
  %11 = getelementptr inbounds nuw i8, ptr %0, i64 20
  store i32 1, ptr %11, align 4, !tbaa !120
  %12 = getelementptr inbounds nuw i8, ptr %7, i64 8
  %13 = load i32, ptr %12, align 4, !tbaa !121
  br label %common.ret54

14:                                               ; preds = %3
  store i16 %.val43, ptr %9, align 2, !tbaa !115
  %15 = getelementptr inbounds nuw i8, ptr %7, i64 12
  %16 = load i32, ptr %15, align 4, !tbaa !31
  %17 = and i32 %16, %2
  %18 = icmp eq i32 %17, 0
  br i1 %18, label %19, label %23

19:                                               ; preds = %14
  %20 = zext i16 %1 to i32
  %21 = mul nuw i32 %20, 65537
  %22 = getelementptr inbounds nuw i8, ptr %7, i64 8
  store i32 %21, ptr %22, align 4, !tbaa !121
  br label %common.ret54

23:                                               ; preds = %14
  %24 = icmp eq i32 %16, %2
  br i1 %24, label %25, label %30

25:                                               ; preds = %23
  %26 = getelementptr i8, ptr %0, i64 56
  %.val46 = load i32, ptr %26, align 8, !tbaa !29
  %27 = zext nneg i16 %5 to i32
  %.not53 = icmp slt i32 %.val46, %27
  br i1 %.not53, label %30, label %28

28:                                               ; preds = %25
  %29 = getelementptr inbounds nuw i8, ptr %7, i64 8
  store i32 1, ptr %29, align 4, !tbaa !121
  br label %common.ret54

common.ret54:                                     ; preds = %28, %19, %10, %30
  %common.ret54.op = phi i32 [ %56, %30 ], [ %13, %10 ], [ %21, %19 ], [ 1, %28 ]
  ret i32 %common.ret54.op

30:                                               ; preds = %25, %23
  %.val47 = load i16, ptr %7, align 4, !tbaa !111
  %31 = and i16 %.val47, -2
  %32 = tail call i32 @Abc_NtkDontCareCofactors_rec(ptr noundef nonnull %0, i16 noundef zeroext %31, i32 noundef %2)
  %33 = getelementptr i8, ptr %7, i64 2
  %.val48 = load i16, ptr %33, align 2, !tbaa !112
  %34 = and i16 %.val48, -2
  %35 = tail call i32 @Abc_NtkDontCareCofactors_rec(ptr noundef nonnull %0, i16 noundef zeroext %34, i32 noundef %2)
  %36 = trunc i32 %32 to i16
  %.val49 = load i16, ptr %7, align 4, !tbaa !111
  %37 = and i16 %.val49, 1
  %38 = xor i16 %37, %36
  %39 = trunc i32 %35 to i16
  %.val51 = load i16, ptr %33, align 2, !tbaa !112
  %40 = and i16 %.val51, 1
  %41 = xor i16 %40, %39
  %42 = tail call fastcc zeroext i16 @Odc_And(ptr noundef nonnull %0, i16 noundef zeroext %38, i16 noundef zeroext %41)
  %43 = lshr i32 %32, 16
  %44 = trunc nuw i32 %43 to i16
  %.val50 = load i16, ptr %7, align 4, !tbaa !111
  %45 = and i16 %.val50, 1
  %46 = xor i16 %45, %44
  %47 = lshr i32 %35, 16
  %48 = trunc nuw i32 %47 to i16
  %.val52 = load i16, ptr %33, align 2, !tbaa !112
  %49 = and i16 %.val52, 1
  %50 = xor i16 %49, %48
  %51 = tail call fastcc zeroext i16 @Odc_And(ptr noundef nonnull %0, i16 noundef zeroext %46, i16 noundef zeroext %50)
  %52 = getelementptr inbounds nuw i8, ptr %0, i64 20
  store i32 0, ptr %52, align 4, !tbaa !120
  %53 = zext i16 %51 to i32
  %54 = shl nuw i32 %53, 16
  %55 = zext i16 %42 to i32
  %56 = or disjoint i32 %54, %55
  %57 = getelementptr inbounds nuw i8, ptr %7, i64 8
  store i32 %56, ptr %57, align 4, !tbaa !121
  br label %common.ret54
}